Certificate:
    Data:
        Version: 3 (0x2)
        Serial Number: 2 (0x2)
    Signature Algorithm: sha256WithRSAEncryption
        Issuer: C=US, O=DigiCert, CN=DigiCert CA
        Validity
            Not Before: Dec 11 15:27:36 2017 GMT
            Not After : Dec 11 15:27:36 2018 GMT
        Subject: C=US, O=Instagram 92, CN=radius.ig.com
        Subject Public Key Info:
            Public Key Algorithm: rsaEncryption
                Public-Key: (2048 bit)
                Modulus:
                    00:99:22:a7:4d:38:ff:c2:73:fc:23:2f:ea:24:19:
                    a4:2a:81:52:23:cc:74:49:3e:d2:f3:6c:df:24:45:
                    48:5b:01:f8:a5:53:99:c3:d9:69:94:ba:0d:18:6d:
                    1d:18:33:f1:a3:71:11:4c:b9:4a:f1:22:eb:6b:a6:
                    00:ac:73:5a:36:38:a4:5a:d4:52:f9:8a:93:96:94:
                    1f:77:de:be:71:1a:b3:39:50:56:10:e0:21:a2:0c:
                    9c:f3:f3:d8:93:4e:03:90:68:c3:de:c7:a0:37:65:
                    f5:28:5c:b9:98:fa:29:de:99:87:92:a9:2b:ee:c0:
                    59:45:b8:56:02:15:e8:b7:24:ad:d9:d8:58:c7:3a:
                    1c:93:32:4a:91:31:d0:cf:4d:9c:28:98:ef:aa:2d:
                    ee:92:3b:05:f0:7b:b1:c7:18:55:e5:fa:2b:0e:93:
                    1d:4f:00:1f:35:38:e2:ef:95:6a:b7:c9:1d:29:1a:
                    ee:f1:90:4d:d3:de:c8:bb:19:7a:ac:d2:14:41:5e:
                    cc:47:c5:d4:b0:14:33:b2:85:b0:f0:1e:14:10:d7:
                    53:2d:41:8f:18:f5:a5:e2:85:24:1b:5c:92:d2:6a:
                    75:30:f1:63:68:fe:5a:e5:bd:6e:4e:80:9f:c4:14:
                    3c:cd:d8:0a:c0:e9:5b:b7:35:c0:89:92:b6:9a:a3:
                    7d:c7
                Exponent: 65537 (0x10001)
        X509v3 extensions:
            X509v3 CRL Distribution Points: 

                Full Name:
                  URI:http://www.digicert.com/ca-crl.pem

            Authority Information Access: 
                OCSP - URI:http://www.digicert.com:3333

            X509v3 Basic Constraints: 
                CA:FALSE
            Netscape Comment: 
                OpenSSL Generated Certificate
            X509v3 Subject Key Identifier: 
                82:C1:FA:D1:32:08:F6:B0:DC:20:9B:4D:A7:CB:BF:4E:FF:F7:31:3A
            X509v3 Authority Key Identifier: 
                keyid:0E:E7:18:FF:22:75:79:85:F6:06:7F:64:3D:01:BA:F2:76:2F:94:72

    Signature Algorithm: sha256WithRSAEncryption
         22:1d:d4:7e:ef:eb:69:db:11:d5:35:66:6c:59:d5:0f:cd:c7:
         30:69:94:6f:e6:0d:9e:a4:ff:93:cd:55:0a:c2:ba:98:25:e6:
         df:00:45:25:6c:99:98:af:b7:2d:5a:90:83:0d:5f:49:d9:10:
         89:8a:9c:fa:8a:0e:42:5b:fa:c1:83:ac:c1:54:46:46:5d:a7:
         88:db:a0:17:6c:06:72:dd:dc:f9:14:4f:c2:0c:d0:40:2e:71:
         1d:4c:0f:bc:e9:b4:69:15:40:1f:28:63:25:1d:57:51:b3:27:
         90:c8:74:48:a8:52:5a:5c:67:9b:03:4e:3d:90:d6:9e:83:0c:
         8e:46:50:9b:bf:9f:dc:17:e1:61:09:38:e5:17:87:43:db:ef:
         d0:42:d7:05:a4:0b:8c:3d:1e:b2:8c:b8:59:48:d1:7d:1e:14:
         22:aa:cb:25:58:ed:ef:3a:b8:d6:09:4f:91:4c:fb:c5:83:bf:
         d5:54:7e:a9:cd:28:72:a4:96:ba:72:eb:aa:32:df:3a:18:20:
         2e:8d:82:0b:a0:31:02:34:8f:48:2b:9b:79:3a:7d:eb:57:10:
         84:75:2a:bb:dd:d2:04:b7:2f:84:06:39:a8:dc:2c:0f:4f:18:
         99:33:76:52:a9:f1:e3:a0:1a:e9:93:ac:1e:e3:27:9a:64:34:
         e7:f1:79:67
-----BEGIN CERTIFICATE-----
MIID2TCCAsGgAwIBAgIBAjANBgkqhkiG9w0BAQsFADA2MQswCQYDVQQGEwJVUzER
MA8GA1UECgwIRGlnaUNlcnQxFDASBgNVBAMMC0RpZ2lDZXJ0IENBMB4XDTE3MTIx
MTE1MjczNloXDTE4MTIxMTE1MjczNlowPDELMAkGA1UEBhMCVVMxFTATBgNVBAoM
DEluc3RhZ3JhbSA5MjEWMBQGA1UEAwwNcmFkaXVzLmlnLmNvbTCCASIwDQYJKoZI
hvcNAQEBBQADggEPADCCAQoCggEBAJkip004/8Jz/CMv6iQZpCqBUiPMdEk+0vNs
3yRFSFsB+KVTmcPZaZS6DRhtHRgz8aNxEUy5SvEi62umAKxzWjY4pFrUUvmKk5aU
H3fevnEaszlQVhDgIaIMnPPz2JNOA5Bow97HoDdl9ShcuZj6Kd6Zh5KpK+7AWUW4
VgIV6LckrdnYWMc6HJMySpEx0M9NnCiY76ot7pI7BfB7sccYVeX6Kw6THU8AHzU4
4u+VarfJHSka7vGQTdPeyLsZeqzSFEFezEfF1LAUM7KFsPAeFBDXUy1Bjxj1peKF
JBtcktJqdTDxY2j+WuW9bk6An8QUPM3YCsDpW7c1wImStpqjfccCAwEAAaOB6zCB
6DAzBgNVHR8ELDAqMCigJqAkhiJodHRwOi8vd3d3LmRpZ2ljZXJ0LmNvbS9jYS1j
cmwucGVtMDgGCCsGAQUFBwEBBCwwKjAoBggrBgEFBQcwAYYcaHR0cDovL3d3dy5k
aWdpY2VydC5jb206MzMzMzAJBgNVHRMEAjAAMCwGCWCGSAGG+EIBDQQfFh1PcGVu
U1NMIEdlbmVyYXRlZCBDZXJ0aWZpY2F0ZTAdBgNVHQ4EFgQUgsH60TII9rDcIJtN
p8u/Tv/3MTowHwYDVR0jBBgwFoAUDucY/yJ1eYX2Bn9kPQG68nYvlHIwDQYJKoZI
hvcNAQELBQADggEBACId1H7v62nbEdU1ZmxZ1Q/NxzBplG/mDZ6k/5PNVQrCupgl
5t8ARSVsmZivty1akIMNX0nZEImKnPqKDkJb+sGDrMFURkZdp4jboBdsBnLd3PkU
T8IM0EAucR1MD7zptGkVQB8oYyUdV1GzJ5DIdEioUlpcZ5sDTj2Q1p6DDI5GUJu/
n9wX4WEJOOUXh0Pb79BC1wWkC4w9HrKMuFlI0X0eFCKqyyVY7e86uNYJT5FM+8WD
v9VUfqnNKHKklrpy66oy3zoYIC6NggugMQI0j0grm3k6fetXEIR1Krvd0gS3L4QG
OajcLA9PGJkzdlKp8eOgGumTrB7jJ5pkNOfxeWc=
-----END CERTIFICATE-----
