Certificate:
    Data:
        Version: 3 (0x2)
        Serial Number: 3 (0x3)
    Signature Algorithm: sha256WithRSAEncryption
        Issuer: C=US, O=DigiCert, CN=DigiCert CA
        Validity
            Not Before: Dec 11 15:35:14 2017 GMT
            Not After : Dec 11 15:35:14 2018 GMT
        Subject: C=US, O=Facebook 91, CN=Adrian Miralles/emailAddress=adrian@fb.com
        Subject Public Key Info:
            Public Key Algorithm: rsaEncryption
                Public-Key: (2048 bit)
                Modulus:
                    00:96:fa:1a:93:e4:9d:2b:1c:ec:26:13:a7:5c:b1:
                    5b:12:23:bc:d4:b9:33:13:e2:9a:de:06:d9:85:92:
                    f4:32:3e:cb:58:04:54:6a:55:55:9b:b0:fb:f1:56:
                    2d:99:63:52:d9:ed:94:21:3a:c9:3b:58:12:c3:c9:
                    5f:3b:bc:41:8f:7d:37:7d:10:be:bc:ce:5d:e2:a7:
                    60:4c:61:4e:7e:93:63:f5:73:42:2a:79:e5:18:6a:
                    39:11:9c:40:79:d9:06:0d:bd:66:cb:b8:24:28:ba:
                    73:a4:ce:ed:14:d4:37:20:a3:7f:c3:2d:39:00:0f:
                    a7:f4:be:5e:71:c4:e2:12:58:d2:0e:38:70:0d:e2:
                    90:4b:33:bc:ef:6f:39:7b:28:3d:84:fa:a5:d5:ee:
                    a5:13:37:54:85:c4:24:79:f2:97:c0:e2:53:25:1b:
                    23:f2:7b:54:cc:0e:9c:56:5d:eb:23:42:bf:8b:3d:
                    6c:dc:3b:62:ca:dd:af:9b:65:ae:8b:cf:40:23:0d:
                    f7:74:70:bd:e6:de:b9:b7:ed:13:12:1e:d9:2d:3c:
                    7e:f4:8a:07:92:d8:df:67:ee:b3:14:d5:cb:dd:ee:
                    6f:cf:f5:11:f1:ee:6a:b3:be:dc:e6:f7:b3:b7:a6:
                    44:60:c6:45:29:4c:f6:32:eb:1d:04:04:05:57:b8:
                    c4:93
                Exponent: 65537 (0x10001)
        X509v3 extensions:
            X509v3 CRL Distribution Points: 

                Full Name:
                  URI:http://www.digicert.com/ca-crl.pem

            Authority Information Access: 
                OCSP - URI:http://www.digicert.com:3333

            X509v3 Basic Constraints: 
                CA:FALSE
            Netscape Comment: 
                OpenSSL Generated Certificate
            X509v3 Subject Key Identifier: 
                45:0B:51:55:E5:C1:59:C5:EA:AF:E0:7D:9C:41:04:18:8A:DB:A9:1D
            X509v3 Authority Key Identifier: 
                keyid:0E:E7:18:FF:22:75:79:85:F6:06:7F:64:3D:01:BA:F2:76:2F:94:72

    Signature Algorithm: sha256WithRSAEncryption
         70:3c:68:9f:5a:3c:17:1d:eb:24:f0:f7:88:6d:16:2e:81:4f:
         a7:dc:7f:7c:77:33:7f:cd:1e:b8:56:23:3d:72:e8:7a:2f:d5:
         8f:33:0f:c0:cb:83:08:ed:05:89:de:48:61:27:d2:9a:67:aa:
         92:1c:04:4c:ad:10:6a:5a:50:0f:4b:f1:81:77:3e:3d:ed:4b:
         19:fc:5b:9a:04:e6:1c:22:20:c1:4c:ad:db:7a:6e:26:f1:67:
         01:bb:02:59:20:0d:6a:7a:be:65:a6:6f:98:6f:ad:53:84:b3:
         e2:c2:d3:0e:1e:2e:c3:a8:a8:06:bf:3d:58:84:21:4b:0e:96:
         e6:75:af:a6:9d:64:b6:90:58:a4:30:46:8d:ec:4e:85:34:86:
         31:15:a2:a2:52:8d:58:c4:88:c3:18:63:14:04:72:25:b9:5d:
         15:58:7e:1c:28:38:45:77:04:01:5d:b0:f6:df:ba:de:e2:d2:
         27:1f:1d:71:82:8c:05:22:97:95:fe:81:34:e7:51:6d:c6:c9:
         94:a1:bd:35:8e:d5:8b:45:67:32:30:65:69:db:bf:84:77:51:
         60:37:7b:aa:66:bb:c5:b6:aa:47:33:55:a9:4b:2a:46:26:e6:
         ec:86:4d:16:b7:85:dc:b4:e2:df:16:66:52:cc:ce:46:a3:b0:
         c7:6e:88:3b
-----BEGIN CERTIFICATE-----
MIID+DCCAuCgAwIBAgIBAzANBgkqhkiG9w0BAQsFADA2MQswCQYDVQQGEwJVUzER
MA8GA1UECgwIRGlnaUNlcnQxFDASBgNVBAMMC0RpZ2lDZXJ0IENBMB4XDTE3MTIx
MTE1MzUxNFoXDTE4MTIxMTE1MzUxNFowWzELMAkGA1UEBhMCVVMxFDASBgNVBAoM
C0ZhY2Vib29rIDkxMRgwFgYDVQQDDA9BZHJpYW4gTWlyYWxsZXMxHDAaBgkqhkiG
9w0BCQEWDWFkcmlhbkBmYi5jb20wggEiMA0GCSqGSIb3DQEBAQUAA4IBDwAwggEK
AoIBAQCW+hqT5J0rHOwmE6dcsVsSI7zUuTMT4preBtmFkvQyPstYBFRqVVWbsPvx
Vi2ZY1LZ7ZQhOsk7WBLDyV87vEGPfTd9EL68zl3ip2BMYU5+k2P1c0IqeeUYajkR
nEB52QYNvWbLuCQounOkzu0U1Dcgo3/DLTkAD6f0vl5xxOISWNIOOHAN4pBLM7zv
bzl7KD2E+qXV7qUTN1SFxCR58pfA4lMlGyPye1TMDpxWXesjQr+LPWzcO2LK3a+b
Za6Lz0AjDfd0cL3m3rm37RMSHtktPH70igeS2N9n7rMU1cvd7m/P9RHx7mqzvtzm
97O3pkRgxkUpTPYy6x0EBAVXuMSTAgMBAAGjgeswgegwMwYDVR0fBCwwKjAooCag
JIYiaHR0cDovL3d3dy5kaWdpY2VydC5jb20vY2EtY3JsLnBlbTA4BggrBgEFBQcB
AQQsMCowKAYIKwYBBQUHMAGGHGh0dHA6Ly93d3cuZGlnaWNlcnQuY29tOjMzMzMw
CQYDVR0TBAIwADAsBglghkgBhvhCAQ0EHxYdT3BlblNTTCBHZW5lcmF0ZWQgQ2Vy
dGlmaWNhdGUwHQYDVR0OBBYEFEULUVXlwVnF6q/gfZxBBBiK26kdMB8GA1UdIwQY
MBaAFA7nGP8idXmF9gZ/ZD0BuvJ2L5RyMA0GCSqGSIb3DQEBCwUAA4IBAQBwPGif
WjwXHesk8PeIbRYugU+n3H98dzN/zR64ViM9cuh6L9WPMw/Ay4MI7QWJ3khhJ9Ka
Z6qSHARMrRBqWlAPS/GBdz497UsZ/FuaBOYcIiDBTK3bem4m8WcBuwJZIA1qer5l
pm+Yb61ThLPiwtMOHi7DqKgGvz1YhCFLDpbmda+mnWS2kFikMEaN7E6FNIYxFaKi
Uo1YxIjDGGMUBHIluV0VWH4cKDhFdwQBXbD237re4tInHx1xgowFIpeV/oE051Ft
xsmUob01jtWLRWcyMGVp27+Ed1FgN3uqZrvFtqpHM1WpSypGJubshk0Wt4XctOLf
FmZSzM5Go7DHbog7
-----END CERTIFICATE-----
