Certificate:
    Data:
        Version: 3 (0x2)
        Serial Number: 5 (0x5)
    Signature Algorithm: sha256WithRSAEncryption
        Issuer: C=US, O=DigiCert, CN=DigiCert CA
        Validity
            Not Before: Dec 11 15:38:34 2017 GMT
            Not After : Dec 11 15:38:34 2018 GMT
        Subject: C=US, O=Instagram 92, CN=Jorge Gallego/emailAddress=jorge@ig.com
        Subject Public Key Info:
            Public Key Algorithm: rsaEncryption
                Public-Key: (2048 bit)
                Modulus:
                    00:c2:8c:08:33:cb:89:cb:d4:44:da:68:f3:21:62:
                    75:1b:36:39:30:a6:1e:b4:b9:05:c6:d3:e2:4a:2a:
                    2f:58:5b:eb:bf:39:6c:dd:2c:66:04:91:a0:6f:a9:
                    ee:af:d7:17:d0:25:64:b0:2a:ff:c6:7e:d8:87:cc:
                    af:c2:ea:9b:4d:05:07:09:6a:73:ac:63:5c:a1:f9:
                    a5:bc:cc:ee:af:47:1d:44:0e:f1:f0:36:36:8a:bb:
                    e4:c5:60:43:ea:68:12:c8:67:27:1c:d4:c2:78:f8:
                    2a:68:2b:44:b0:aa:9d:58:c5:de:df:b2:ca:48:2f:
                    ee:73:ef:23:14:a1:97:1e:e9:a9:2e:86:3e:18:91:
                    da:32:05:3a:1b:85:26:ce:40:6a:b4:48:97:a7:f5:
                    ee:56:1f:d6:25:06:9c:d9:c4:da:16:b8:86:bc:72:
                    60:04:f1:fc:d0:35:55:7a:46:3f:a9:2b:54:bf:b4:
                    77:95:05:e8:c5:ab:ab:d1:8f:a2:1e:a6:0a:84:ca:
                    b1:6c:ec:1e:63:06:83:01:64:de:1d:78:16:53:aa:
                    00:16:5f:77:33:21:0f:4c:57:ff:34:b7:0b:56:c7:
                    09:6d:e1:5f:3a:51:5b:02:ff:2c:78:1c:25:0e:48:
                    2c:a1:f0:3b:c2:ae:e4:fa:4c:8c:66:d9:f8:81:d8:
                    da:ef
                Exponent: 65537 (0x10001)
        X509v3 extensions:
            X509v3 CRL Distribution Points: 

                Full Name:
                  URI:http://www.digicert.com/ca-crl.pem

            Authority Information Access: 
                OCSP - URI:http://www.digicert.com:3333

            X509v3 Basic Constraints: 
                CA:FALSE
            Netscape Comment: 
                OpenSSL Generated Certificate
            X509v3 Subject Key Identifier: 
                A2:88:D0:91:CB:72:CC:18:A0:13:48:EF:06:99:A0:83:19:82:04:CA
            X509v3 Authority Key Identifier: 
                keyid:0E:E7:18:FF:22:75:79:85:F6:06:7F:64:3D:01:BA:F2:76:2F:94:72

    Signature Algorithm: sha256WithRSAEncryption
         62:45:37:c2:5f:a1:d0:40:24:d4:62:27:d3:ce:10:c4:89:6d:
         b2:e5:80:60:b2:88:c9:ba:ed:aa:13:5d:69:0c:a0:84:3c:f3:
         80:0c:53:f1:03:f2:fb:00:a0:ab:c8:2e:5c:1c:0d:ce:cb:b2:
         84:10:1a:44:b5:4c:44:7c:eb:bf:95:a5:04:8b:61:9c:c5:1e:
         5b:2e:27:3a:e5:b3:f3:18:e9:0a:8c:cb:2a:a6:d2:86:d5:4d:
         9f:11:0b:52:25:95:df:30:dd:10:96:96:cc:a0:a8:c3:54:c8:
         fe:ca:b1:56:43:50:7f:89:57:47:ac:3d:3d:54:90:e7:38:0b:
         f6:43:54:c1:3a:c0:f0:99:d3:54:d4:b3:50:44:a9:cf:02:be:
         ee:76:6e:e6:79:61:6e:f6:0c:b8:06:72:3f:aa:58:8a:ad:3e:
         3d:13:ed:20:41:0b:0f:0f:b2:7c:2f:e0:67:0b:e2:b0:d0:29:
         61:ea:0b:95:9b:55:16:27:39:84:6e:da:4c:23:71:e1:58:ac:
         7e:d0:60:52:b0:68:00:b9:a8:8b:f5:cd:30:70:72:6b:e4:2f:
         88:cb:b6:11:5f:81:24:eb:bd:a0:c9:a8:5e:5b:16:9b:82:e5:
         5f:81:34:fa:61:5b:b9:ae:ad:85:2d:9e:90:4f:01:c5:9e:7f:
         84:9c:ee:bd
-----BEGIN CERTIFICATE-----
MIID9jCCAt6gAwIBAgIBBTANBgkqhkiG9w0BAQsFADA2MQswCQYDVQQGEwJVUzER
MA8GA1UECgwIRGlnaUNlcnQxFDASBgNVBAMMC0RpZ2lDZXJ0IENBMB4XDTE3MTIx
MTE1MzgzNFoXDTE4MTIxMTE1MzgzNFowWTELMAkGA1UEBhMCVVMxFTATBgNVBAoM
DEluc3RhZ3JhbSA5MjEWMBQGA1UEAwwNSm9yZ2UgR2FsbGVnbzEbMBkGCSqGSIb3
DQEJARYMam9yZ2VAaWcuY29tMIIBIjANBgkqhkiG9w0BAQEFAAOCAQ8AMIIBCgKC
AQEAwowIM8uJy9RE2mjzIWJ1GzY5MKYetLkFxtPiSiovWFvrvzls3SxmBJGgb6nu
r9cX0CVksCr/xn7Yh8yvwuqbTQUHCWpzrGNcofmlvMzur0cdRA7x8DY2irvkxWBD
6mgSyGcnHNTCePgqaCtEsKqdWMXe37LKSC/uc+8jFKGXHumpLoY+GJHaMgU6G4Um
zkBqtEiXp/XuVh/WJQac2cTaFriGvHJgBPH80DVVekY/qStUv7R3lQXoxaur0Y+i
HqYKhMqxbOweYwaDAWTeHXgWU6oAFl93MyEPTFf/NLcLVscJbeFfOlFbAv8seBwl
DkgsofA7wq7k+kyMZtn4gdja7wIDAQABo4HrMIHoMDMGA1UdHwQsMCowKKAmoCSG
Imh0dHA6Ly93d3cuZGlnaWNlcnQuY29tL2NhLWNybC5wZW0wOAYIKwYBBQUHAQEE
LDAqMCgGCCsGAQUFBzABhhxodHRwOi8vd3d3LmRpZ2ljZXJ0LmNvbTozMzMzMAkG
A1UdEwQCMAAwLAYJYIZIAYb4QgENBB8WHU9wZW5TU0wgR2VuZXJhdGVkIENlcnRp
ZmljYXRlMB0GA1UdDgQWBBSiiNCRy3LMGKATSO8GmaCDGYIEyjAfBgNVHSMEGDAW
gBQO5xj/InV5hfYGf2Q9Abrydi+UcjANBgkqhkiG9w0BAQsFAAOCAQEAYkU3wl+h
0EAk1GIn084QxIltsuWAYLKIybrtqhNdaQyghDzzgAxT8QPy+wCgq8guXBwNzsuy
hBAaRLVMRHzrv5WlBIthnMUeWy4nOuWz8xjpCozLKqbShtVNnxELUiWV3zDdEJaW
zKCow1TI/sqxVkNQf4lXR6w9PVSQ5zgL9kNUwTrA8JnTVNSzUESpzwK+7nZu5nlh
bvYMuAZyP6pYiq0+PRPtIEELDw+yfC/gZwvisNApYeoLlZtVFic5hG7aTCNx4Vis
ftBgUrBoALmoi/XNMHBya+QviMu2EV+BJOu9oMmoXlsWm4LlX4E0+mFbua6thS2e
kE8BxZ5/hJzuvQ==
-----END CERTIFICATE-----
