Certificate:
    Data:
        Version: 3 (0x2)
        Serial Number: 8 (0x8)
    Signature Algorithm: sha256WithRSAEncryption
        Issuer: C=US, O=DigiCert, CN=DigiCert CA
        Validity
            Not Before: Dec 11 15:42:51 2017 GMT
            Not After : Dec 11 15:42:51 2018 GMT
        Subject: C=US, O=Instagram 92, CN=asterisk.ig.com
        Subject Public Key Info:
            Public Key Algorithm: rsaEncryption
                Public-Key: (2048 bit)
                Modulus:
                    00:aa:51:28:1d:63:51:73:c9:25:1d:e6:fa:1b:dd:
                    eb:70:cf:6c:80:9a:a5:77:29:33:9a:06:c6:02:4d:
                    e3:13:7a:fd:b2:f8:d6:a1:ba:9a:06:e6:8d:2c:e9:
                    d1:e4:a3:9a:1f:6c:dd:b5:5a:50:e8:b6:07:26:ec:
                    32:da:5e:ab:36:2c:36:2d:36:9d:b9:49:7c:75:20:
                    bd:d4:e1:2e:e2:86:bd:26:64:47:b9:87:b1:1e:44:
                    5a:71:64:60:1e:72:dd:c1:4d:e3:e4:3f:4c:ca:b0:
                    08:a3:f6:d0:36:c3:c3:b9:07:6a:78:26:04:d0:45:
                    22:07:fe:21:74:46:c3:f7:42:de:11:98:13:f2:09:
                    6e:da:7b:38:b7:e6:8f:05:c2:01:e2:2a:8a:59:b8:
                    04:86:fe:58:3b:67:39:59:34:c9:e8:66:68:b7:53:
                    f4:c4:67:08:b1:b2:97:21:10:3b:ae:75:f0:3d:a4:
                    97:47:ce:2b:84:98:ec:6b:72:03:a7:5c:fc:fa:cd:
                    2a:cb:b6:c2:ab:87:20:60:6f:8e:59:af:a0:89:6b:
                    78:43:24:fc:b9:99:d6:c3:0b:7d:d9:51:40:68:a7:
                    a2:72:eb:4b:4f:d1:a4:6f:c9:3f:a8:83:7d:07:b2:
                    f0:36:d2:fb:4f:b0:ce:5b:bb:e4:43:90:74:0c:6e:
                    c5:d9
                Exponent: 65537 (0x10001)
        X509v3 extensions:
            X509v3 CRL Distribution Points: 

                Full Name:
                  URI:http://www.digicert.com/ca-crl.pem

            Authority Information Access: 
                OCSP - URI:http://www.digicert.com:3333

            X509v3 Basic Constraints: 
                CA:FALSE
            Netscape Comment: 
                OpenSSL Generated Certificate
            X509v3 Subject Key Identifier: 
                F5:A2:48:89:83:68:F4:BA:C7:92:62:DB:6F:43:0C:C3:EF:07:59:A2
            X509v3 Authority Key Identifier: 
                keyid:0E:E7:18:FF:22:75:79:85:F6:06:7F:64:3D:01:BA:F2:76:2F:94:72

    Signature Algorithm: sha256WithRSAEncryption
         1e:09:d9:d9:09:d4:14:b4:1c:24:54:46:8f:b5:c4:00:22:16:
         9a:91:28:9d:85:73:e6:be:95:46:5e:82:52:aa:b3:6a:49:25:
         9a:20:fa:c9:e7:36:85:8d:2c:1f:74:76:32:3f:9d:dd:bc:5c:
         c1:53:e5:83:08:b8:8a:e2:61:96:67:1a:8c:f9:99:c1:c7:0a:
         89:23:aa:55:ff:3c:f9:6a:12:d6:49:ac:8c:c9:bd:14:25:e6:
         e7:c7:3b:d4:04:bb:80:07:93:d2:e6:43:b4:d0:27:90:2e:db:
         9a:1c:a8:75:3a:47:75:18:f6:35:79:3c:d1:9e:7b:a6:d1:70:
         e0:22:40:bc:69:e3:f7:bd:ef:bd:5f:7f:bb:4c:06:d8:14:83:
         b9:87:8a:fe:5c:91:66:6a:59:31:f9:e2:4f:26:34:3f:18:b6:
         da:c5:28:6d:26:4f:14:cf:41:ec:ec:fe:de:fa:1c:5a:57:11:
         7f:f5:78:ec:6a:73:04:ff:c2:e6:24:18:5b:6c:1c:49:57:57:
         44:a2:07:f1:2d:04:07:0c:61:7d:e7:94:4a:f6:cc:49:72:af:
         07:b9:c0:6b:e0:dd:6c:17:b2:46:2a:4a:4b:6e:11:be:96:d2:
         3f:b1:be:c3:26:72:7b:64:66:80:1c:7d:d0:53:fc:28:c4:b3:
         58:5a:7f:8f
-----BEGIN CERTIFICATE-----
MIID2zCCAsOgAwIBAgIBCDANBgkqhkiG9w0BAQsFADA2MQswCQYDVQQGEwJVUzER
MA8GA1UECgwIRGlnaUNlcnQxFDASBgNVBAMMC0RpZ2lDZXJ0IENBMB4XDTE3MTIx
MTE1NDI1MVoXDTE4MTIxMTE1NDI1MVowPjELMAkGA1UEBhMCVVMxFTATBgNVBAoM
DEluc3RhZ3JhbSA5MjEYMBYGA1UEAwwPYXN0ZXJpc2suaWcuY29tMIIBIjANBgkq
hkiG9w0BAQEFAAOCAQ8AMIIBCgKCAQEAqlEoHWNRc8klHeb6G93rcM9sgJqldykz
mgbGAk3jE3r9svjWobqaBuaNLOnR5KOaH2zdtVpQ6LYHJuwy2l6rNiw2LTaduUl8
dSC91OEu4oa9JmRHuYexHkRacWRgHnLdwU3j5D9MyrAIo/bQNsPDuQdqeCYE0EUi
B/4hdEbD90LeEZgT8glu2ns4t+aPBcIB4iqKWbgEhv5YO2c5WTTJ6GZot1P0xGcI
sbKXIRA7rnXwPaSXR84rhJjsa3IDp1z8+s0qy7bCq4cgYG+OWa+giWt4QyT8uZnW
wwt92VFAaKeicutLT9Gkb8k/qIN9B7LwNtL7T7DOW7vkQ5B0DG7F2QIDAQABo4Hr
MIHoMDMGA1UdHwQsMCowKKAmoCSGImh0dHA6Ly93d3cuZGlnaWNlcnQuY29tL2Nh
LWNybC5wZW0wOAYIKwYBBQUHAQEELDAqMCgGCCsGAQUFBzABhhxodHRwOi8vd3d3
LmRpZ2ljZXJ0LmNvbTozMzMzMAkGA1UdEwQCMAAwLAYJYIZIAYb4QgENBB8WHU9w
ZW5TU0wgR2VuZXJhdGVkIENlcnRpZmljYXRlMB0GA1UdDgQWBBT1okiJg2j0useS
YttvQwzD7wdZojAfBgNVHSMEGDAWgBQO5xj/InV5hfYGf2Q9Abrydi+UcjANBgkq
hkiG9w0BAQsFAAOCAQEAHgnZ2QnUFLQcJFRGj7XEACIWmpEonYVz5r6VRl6CUqqz
akklmiD6yec2hY0sH3R2Mj+d3bxcwVPlgwi4iuJhlmcajPmZwccKiSOqVf88+WoS
1kmsjMm9FCXm58c71AS7gAeT0uZDtNAnkC7bmhyodTpHdRj2NXk80Z57ptFw4CJA
vGnj973vvV9/u0wG2BSDuYeK/lyRZmpZMfniTyY0Pxi22sUobSZPFM9B7Oz+3voc
WlcRf/V47GpzBP/C5iQYW2wcSVdXRKIH8S0EBwxhfeeUSvbMSXKvB7nAa+DdbBey
RipKS24RvpbSP7G+wyZye2RmgBx90FP8KMSzWFp/jw==
-----END CERTIFICATE-----
