Certificate:
    Data:
        Version: 3 (0x2)
        Serial Number: 4 (0x4)
    Signature Algorithm: sha256WithRSAEncryption
        Issuer: C=US, O=DigiCert, CN=DigiCert CA
        Validity
            Not Before: Dec 11 15:36:10 2017 GMT
            Not After : Dec 11 15:36:10 2018 GMT
        Subject: C=US, O=Facebook 91, CN=owncloud.fb.com
        Subject Public Key Info:
            Public Key Algorithm: rsaEncryption
                Public-Key: (2048 bit)
                Modulus:
                    00:ee:c5:96:49:ef:64:24:ac:b4:7f:18:0f:2d:bb:
                    97:78:79:ce:ce:64:29:8c:72:d9:2b:ad:e0:5b:14:
                    b4:52:6b:d4:2a:45:ff:9b:b5:45:50:43:15:ae:1c:
                    b6:bd:3f:b2:43:06:95:cb:6d:a2:2d:a5:93:a0:87:
                    ba:0e:fb:2f:b8:46:87:65:90:6c:1c:9c:8a:7e:92:
                    d3:ff:50:60:24:1b:66:b3:de:98:57:07:e4:86:7c:
                    ad:3b:f7:22:52:3e:36:d3:4c:d7:b9:9b:a5:df:0c:
                    5d:5e:c4:d4:a1:65:a1:af:e7:59:a3:e2:4f:d5:cb:
                    c1:39:8a:17:d1:8e:30:66:c3:c0:00:19:17:b1:10:
                    dd:d9:27:1b:11:0e:fb:65:ba:f3:e3:e1:e4:a8:73:
                    55:f5:76:16:63:fc:53:3d:4d:a7:8e:2c:98:70:a1:
                    df:e2:29:ee:1d:ed:3b:13:85:db:03:2a:70:46:1d:
                    c6:e0:d6:46:67:b9:48:47:7c:9d:fc:63:a4:9c:3d:
                    eb:98:ab:6a:d2:9d:08:c2:02:6d:ad:43:01:89:bc:
                    9a:cd:de:cd:02:47:25:6d:d4:24:10:88:fb:70:ec:
                    a8:e4:b2:3a:79:03:be:c8:d0:29:1b:f7:4a:fe:50:
                    6a:fa:f0:15:02:df:0f:e0:98:98:b8:ef:df:27:58:
                    e6:7d
                Exponent: 65537 (0x10001)
        X509v3 extensions:
            X509v3 CRL Distribution Points: 

                Full Name:
                  URI:http://www.digicert.com/ca-crl.pem

            Authority Information Access: 
                OCSP - URI:http://www.digicert.com:3333

            X509v3 Basic Constraints: 
                CA:FALSE
            Netscape Comment: 
                OpenSSL Generated Certificate
            X509v3 Subject Key Identifier: 
                91:93:2D:F7:D6:2E:24:0C:53:EA:35:17:77:2E:F7:41:D6:E7:0D:55
            X509v3 Authority Key Identifier: 
                keyid:0E:E7:18:FF:22:75:79:85:F6:06:7F:64:3D:01:BA:F2:76:2F:94:72

    Signature Algorithm: sha256WithRSAEncryption
         02:3c:90:bb:d1:1e:ab:a9:29:f7:e2:d2:21:58:e2:e3:4c:38:
         42:98:d8:39:f3:df:1a:6d:5f:83:e1:f9:fd:2a:29:c9:88:2f:
         44:be:1c:84:49:02:19:c2:52:6a:28:00:24:2d:32:a4:a5:c2:
         da:b4:d4:d3:09:11:49:3f:4e:e0:80:1b:a5:5b:38:f2:14:72:
         52:40:78:ae:fd:87:80:bd:38:db:48:3b:1d:18:39:7c:6a:6d:
         34:5a:af:19:fb:08:59:92:6a:6d:a4:bd:9a:54:31:1c:1a:39:
         9f:3d:03:95:6e:e0:1b:67:a6:f4:fe:16:39:38:60:8e:96:36:
         79:13:c9:ed:80:77:8e:80:18:7d:79:2b:b2:d1:86:a3:92:a2:
         40:80:1f:82:80:05:3e:2f:e9:f8:40:48:1e:2c:38:93:21:ee:
         f9:74:90:2b:42:42:94:69:1b:44:8e:1c:31:b4:59:96:55:36:
         6f:ef:04:7d:7d:f4:4c:9d:ce:76:ca:65:f2:cb:c8:98:4a:55:
         e9:bf:ea:c5:b9:00:dc:6a:39:da:7f:1d:25:e6:9e:22:44:8c:
         f5:30:ec:3b:d2:b3:27:17:4b:9b:94:2d:8f:11:5d:f7:49:81:
         27:3b:61:35:08:8a:1b:24:1a:73:69:a9:8c:c5:1d:8a:88:c3:
         bf:82:42:55
-----BEGIN CERTIFICATE-----
MIID2jCCAsKgAwIBAgIBBDANBgkqhkiG9w0BAQsFADA2MQswCQYDVQQGEwJVUzER
MA8GA1UECgwIRGlnaUNlcnQxFDASBgNVBAMMC0RpZ2lDZXJ0IENBMB4XDTE3MTIx
MTE1MzYxMFoXDTE4MTIxMTE1MzYxMFowPTELMAkGA1UEBhMCVVMxFDASBgNVBAoM
C0ZhY2Vib29rIDkxMRgwFgYDVQQDDA9vd25jbG91ZC5mYi5jb20wggEiMA0GCSqG
SIb3DQEBAQUAA4IBDwAwggEKAoIBAQDuxZZJ72QkrLR/GA8tu5d4ec7OZCmMctkr
reBbFLRSa9QqRf+btUVQQxWuHLa9P7JDBpXLbaItpZOgh7oO+y+4RodlkGwcnIp+
ktP/UGAkG2az3phXB+SGfK079yJSPjbTTNe5m6XfDF1exNShZaGv51mj4k/Vy8E5
ihfRjjBmw8AAGRexEN3ZJxsRDvtluvPj4eSoc1X1dhZj/FM9TaeOLJhwod/iKe4d
7TsThdsDKnBGHcbg1kZnuUhHfJ38Y6ScPeuYq2rSnQjCAm2tQwGJvJrN3s0CRyVt
1CQQiPtw7Kjksjp5A77I0Ckb90r+UGr68BUC3w/gmJi4798nWOZ9AgMBAAGjgesw
gegwMwYDVR0fBCwwKjAooCagJIYiaHR0cDovL3d3dy5kaWdpY2VydC5jb20vY2Et
Y3JsLnBlbTA4BggrBgEFBQcBAQQsMCowKAYIKwYBBQUHMAGGHGh0dHA6Ly93d3cu
ZGlnaWNlcnQuY29tOjMzMzMwCQYDVR0TBAIwADAsBglghkgBhvhCAQ0EHxYdT3Bl
blNTTCBHZW5lcmF0ZWQgQ2VydGlmaWNhdGUwHQYDVR0OBBYEFJGTLffWLiQMU+o1
F3cu90HW5w1VMB8GA1UdIwQYMBaAFA7nGP8idXmF9gZ/ZD0BuvJ2L5RyMA0GCSqG
SIb3DQEBCwUAA4IBAQACPJC70R6rqSn34tIhWOLjTDhCmNg5898abV+D4fn9KinJ
iC9EvhyESQIZwlJqKAAkLTKkpcLatNTTCRFJP07ggBulWzjyFHJSQHiu/YeAvTjb
SDsdGDl8am00Wq8Z+whZkmptpL2aVDEcGjmfPQOVbuAbZ6b0/hY5OGCOljZ5E8nt
gHeOgBh9eSuy0YajkqJAgB+CgAU+L+n4QEgeLDiTIe75dJArQkKUaRtEjhwxtFmW
VTZv7wR9ffRMnc52ymXyy8iYSlXpv+rFuQDcajnafx0l5p4iRIz1MOw70rMnF0ub
lC2PEV33SYEnO2E1CIobJBpzaamMxR2KiMO/gkJV
-----END CERTIFICATE-----
