Certificate:
    Data:
        Version: 3 (0x2)
        Serial Number: 7 (0x7)
    Signature Algorithm: sha256WithRSAEncryption
        Issuer: C=US, O=DigiCert, CN=DigiCert CA
        Validity
            Not Before: Dec 11 15:41:18 2017 GMT
            Not After : Dec 11 15:41:18 2018 GMT
        Subject: C=US, O=Facebook 91, CN=asterisk.fb.com
        Subject Public Key Info:
            Public Key Algorithm: rsaEncryption
                Public-Key: (2048 bit)
                Modulus:
                    00:b7:61:12:06:a7:27:d1:95:73:42:e0:e6:9d:98:
                    34:ed:8e:ec:1b:22:c5:fb:fe:f9:34:a9:af:80:83:
                    5a:8a:51:ab:66:af:62:97:82:e7:4a:3b:8a:9d:b7:
                    97:c3:72:85:ea:f2:f9:0d:42:d7:5d:00:b4:80:10:
                    c6:f5:be:eb:ab:e5:49:18:a3:9d:a3:e4:a3:2b:41:
                    ce:98:a6:ed:43:cd:0f:d7:dc:e8:e0:d2:b1:47:c6:
                    b9:ef:3a:1b:3a:86:2b:58:55:b0:42:2e:c0:73:59:
                    c6:2b:9c:a8:92:66:e9:f1:7d:b0:32:14:a1:0e:d5:
                    50:b3:3f:6f:f5:06:67:37:1b:c7:26:ce:4d:c6:58:
                    2f:33:18:1b:70:0f:22:09:0b:af:e5:09:d0:73:3f:
                    33:42:27:37:a4:2a:42:ba:7a:00:5c:a3:04:81:39:
                    b8:ad:d7:bc:cf:a9:f6:13:d2:c1:97:ed:1e:71:72:
                    b3:14:0b:26:3e:8b:c9:5d:8c:5e:74:a7:7e:3f:69:
                    7b:c0:a6:02:84:1d:24:df:c4:9c:af:96:ce:dd:40:
                    d2:26:72:87:59:23:b6:c0:64:4c:e5:b7:8e:4e:f0:
                    c2:eb:45:5e:9e:4d:1f:3a:9e:64:5e:c0:8a:9c:b2:
                    d7:f5:03:4c:79:e4:ea:60:28:58:cb:6d:34:eb:88:
                    7f:25
                Exponent: 65537 (0x10001)
        X509v3 extensions:
            X509v3 CRL Distribution Points: 

                Full Name:
                  URI:http://www.digicert.com/ca-crl.pem

            Authority Information Access: 
                OCSP - URI:http://www.digicert.com:3333

            X509v3 Basic Constraints: 
                CA:FALSE
            Netscape Comment: 
                OpenSSL Generated Certificate
            X509v3 Subject Key Identifier: 
                DC:D4:39:28:C7:C5:FA:EE:3C:90:DB:15:77:5A:55:16:F7:1C:30:43
            X509v3 Authority Key Identifier: 
                keyid:0E:E7:18:FF:22:75:79:85:F6:06:7F:64:3D:01:BA:F2:76:2F:94:72

    Signature Algorithm: sha256WithRSAEncryption
         5f:ee:7c:04:91:9c:63:64:24:34:ef:4b:22:b4:2c:47:20:f5:
         c1:5d:4d:25:ad:fd:7a:c5:89:a3:67:04:40:e7:61:81:04:72:
         c3:f0:c2:d1:43:3d:fe:9f:d4:ec:36:c1:31:55:f2:4d:ae:b0:
         e9:87:9c:b0:aa:a2:63:20:9a:ff:ac:17:d1:77:4b:52:f2:56:
         35:d3:76:25:8d:24:39:1b:2d:67:a2:31:28:f7:19:6f:c8:40:
         87:17:18:37:33:4d:e3:6e:e5:92:5d:d4:ae:c8:98:42:f0:ee:
         eb:91:5e:0f:b7:6d:89:cb:87:9f:c3:79:f3:7b:38:1c:c5:9e:
         d5:fc:62:b6:7a:4c:46:6a:7f:c7:ea:92:fd:85:e7:3d:d1:7b:
         9b:3d:19:a9:d6:72:34:ed:eb:e2:36:61:d9:95:fa:02:89:a7:
         25:14:f0:cd:83:ee:46:6a:aa:dd:81:54:f2:64:17:8b:a2:a0:
         1a:da:6a:f7:00:38:b8:c3:c5:d3:92:27:14:0b:76:7e:fb:e5:
         c7:41:57:b1:6a:73:80:9e:e2:c5:e9:d6:30:71:3e:6e:0e:7a:
         87:36:9e:01:7e:3b:09:d8:95:c1:03:09:78:69:75:5e:7c:97:
         fe:a0:6e:62:a2:e4:f6:84:92:c6:52:ed:27:3b:50:f9:ee:f5:
         df:2f:49:a3
-----BEGIN CERTIFICATE-----
MIID2jCCAsKgAwIBAgIBBzANBgkqhkiG9w0BAQsFADA2MQswCQYDVQQGEwJVUzER
MA8GA1UECgwIRGlnaUNlcnQxFDASBgNVBAMMC0RpZ2lDZXJ0IENBMB4XDTE3MTIx
MTE1NDExOFoXDTE4MTIxMTE1NDExOFowPTELMAkGA1UEBhMCVVMxFDASBgNVBAoM
C0ZhY2Vib29rIDkxMRgwFgYDVQQDDA9hc3Rlcmlzay5mYi5jb20wggEiMA0GCSqG
SIb3DQEBAQUAA4IBDwAwggEKAoIBAQC3YRIGpyfRlXNC4OadmDTtjuwbIsX7/vk0
qa+Ag1qKUatmr2KXgudKO4qdt5fDcoXq8vkNQtddALSAEMb1vuur5UkYo52j5KMr
Qc6Ypu1DzQ/X3Ojg0rFHxrnvOhs6hitYVbBCLsBzWcYrnKiSZunxfbAyFKEO1VCz
P2/1Bmc3G8cmzk3GWC8zGBtwDyIJC6/lCdBzPzNCJzekKkK6egBcowSBObit17zP
qfYT0sGX7R5xcrMUCyY+i8ldjF50p34/aXvApgKEHSTfxJyvls7dQNImcodZI7bA
ZEzlt45O8MLrRV6eTR86nmRewIqcstf1A0x55OpgKFjLbTTriH8lAgMBAAGjgesw
gegwMwYDVR0fBCwwKjAooCagJIYiaHR0cDovL3d3dy5kaWdpY2VydC5jb20vY2Et
Y3JsLnBlbTA4BggrBgEFBQcBAQQsMCowKAYIKwYBBQUHMAGGHGh0dHA6Ly93d3cu
ZGlnaWNlcnQuY29tOjMzMzMwCQYDVR0TBAIwADAsBglghkgBhvhCAQ0EHxYdT3Bl
blNTTCBHZW5lcmF0ZWQgQ2VydGlmaWNhdGUwHQYDVR0OBBYEFNzUOSjHxfruPJDb
FXdaVRb3HDBDMB8GA1UdIwQYMBaAFA7nGP8idXmF9gZ/ZD0BuvJ2L5RyMA0GCSqG
SIb3DQEBCwUAA4IBAQBf7nwEkZxjZCQ070sitCxHIPXBXU0lrf16xYmjZwRA52GB
BHLD8MLRQz3+n9TsNsExVfJNrrDph5ywqqJjIJr/rBfRd0tS8lY103YljSQ5Gy1n
ojEo9xlvyECHFxg3M03jbuWSXdSuyJhC8O7rkV4Pt22Jy4efw3nzezgcxZ7V/GK2
ekxGan/H6pL9hec90XubPRmp1nI07eviNmHZlfoCiaclFPDNg+5GaqrdgVTyZBeL
oqAa2mr3ADi4w8XTkicUC3Z+++XHQVexanOAnuLF6dYwcT5uDnqHNp4BfjsJ2JXB
Awl4aXVefJf+oG5iouT2hJLGUu0nO1D57vXfL0mj
-----END CERTIFICATE-----
