Certificate:
    Data:
        Version: 3 (0x2)
        Serial Number: 6 (0x6)
    Signature Algorithm: sha256WithRSAEncryption
        Issuer: C=US, O=DigiCert, CN=DigiCert CA
        Validity
            Not Before: Dec 11 15:39:17 2017 GMT
            Not After : Dec 11 15:39:17 2018 GMT
        Subject: C=US, O=Facebook 91, CN=Jorge Gallego/emailAddress=jorge@fb.com
        Subject Public Key Info:
            Public Key Algorithm: rsaEncryption
                Public-Key: (2048 bit)
                Modulus:
                    00:b5:e1:71:30:dd:ce:c8:e5:9d:e7:60:c7:0b:a1:
                    91:9a:d3:b7:1f:f8:40:f8:1a:c1:d8:9e:38:d5:93:
                    fa:1f:fa:8b:af:db:50:97:5e:20:5d:79:d5:df:dc:
                    de:36:d8:9a:bf:fe:e6:80:e0:e4:58:80:d9:b6:1c:
                    e9:b0:2b:95:4b:16:1e:fa:a4:c0:ad:9c:d1:fb:ae:
                    a1:f0:6a:1c:89:20:77:1e:7d:2a:1d:7a:b7:05:ef:
                    f9:e3:0b:7b:1c:41:cb:5a:f6:34:77:04:41:5c:fb:
                    3a:ef:38:58:e9:dd:96:cd:05:eb:5e:14:91:e3:04:
                    6b:27:f3:f2:ea:f7:8a:5e:d7:d1:31:44:03:c2:8f:
                    b1:96:84:56:24:4d:aa:94:cd:a1:ef:1e:90:c6:bd:
                    5b:c6:48:d0:98:f0:6e:82:e9:da:bb:59:62:c5:45:
                    a5:48:0a:1b:b0:f8:f7:1a:ae:b7:e0:79:b8:90:90:
                    cb:61:f5:f1:9b:50:a3:fe:f6:b6:2f:58:a8:55:b9:
                    f1:6f:25:9f:5a:00:3a:b4:bf:75:80:5e:01:8c:3f:
                    11:44:d2:e0:ca:cc:05:4f:7a:4b:27:fa:af:6f:d1:
                    63:ad:04:10:d4:0b:6b:5a:79:dd:7f:22:9c:e9:ca:
                    81:a4:fe:2f:24:ca:81:d6:58:13:c1:99:06:7e:72:
                    7b:75
                Exponent: 65537 (0x10001)
        X509v3 extensions:
            X509v3 CRL Distribution Points: 

                Full Name:
                  URI:http://www.digicert.com/ca-crl.pem

            Authority Information Access: 
                OCSP - URI:http://www.digicert.com:3333

            X509v3 Basic Constraints: 
                CA:FALSE
            Netscape Comment: 
                OpenSSL Generated Certificate
            X509v3 Subject Key Identifier: 
                0E:7C:EA:FF:3B:0D:00:8C:BC:D5:C6:A1:26:52:10:FB:9F:06:9E:FE
            X509v3 Authority Key Identifier: 
                keyid:0E:E7:18:FF:22:75:79:85:F6:06:7F:64:3D:01:BA:F2:76:2F:94:72

    Signature Algorithm: sha256WithRSAEncryption
         50:76:09:d5:5a:dc:78:15:b4:7d:61:02:a1:a8:cb:34:22:62:
         70:2f:59:5d:9a:28:1f:e7:d7:2a:2a:d5:37:ee:2d:22:fa:67:
         6d:13:45:00:67:c1:00:d4:a4:4d:50:9e:a5:21:21:9d:41:4b:
         e7:01:97:43:e0:01:c1:83:92:ce:4a:51:75:9b:03:dc:39:45:
         89:57:e0:11:4c:fb:84:ee:02:e6:87:cd:bf:11:ba:fc:a9:92:
         d1:6e:64:83:88:6e:e6:be:bb:e7:3c:61:31:29:0f:c7:8c:25:
         8a:e2:c9:01:c2:a3:bf:bd:de:37:58:02:6f:70:1a:0b:65:fa:
         1d:95:51:d3:06:c2:02:c9:90:81:43:5a:a7:28:29:c2:19:24:
         7a:26:fb:ca:66:06:cc:5f:4f:bb:88:8c:40:9e:46:8a:73:ad:
         67:99:37:b5:7e:fa:2f:23:bc:a4:34:44:9a:e4:f6:c4:06:55:
         a3:c6:80:f7:28:1a:6a:8b:87:a8:19:37:fe:ea:32:f0:97:ba:
         68:fb:45:58:dc:dc:ab:77:e7:80:63:22:a0:88:32:a0:e6:1e:
         3e:4a:28:87:b0:d2:c8:5d:a1:bd:56:fa:aa:9d:59:80:db:b3:
         9f:3c:7f:5f:d3:1f:80:e1:2a:f6:45:76:a9:63:a1:77:8e:70:
         45:a2:0b:9c
-----BEGIN CERTIFICATE-----
MIID9TCCAt2gAwIBAgIBBjANBgkqhkiG9w0BAQsFADA2MQswCQYDVQQGEwJVUzER
MA8GA1UECgwIRGlnaUNlcnQxFDASBgNVBAMMC0RpZ2lDZXJ0IENBMB4XDTE3MTIx
MTE1MzkxN1oXDTE4MTIxMTE1MzkxN1owWDELMAkGA1UEBhMCVVMxFDASBgNVBAoM
C0ZhY2Vib29rIDkxMRYwFAYDVQQDDA1Kb3JnZSBHYWxsZWdvMRswGQYJKoZIhvcN
AQkBFgxqb3JnZUBmYi5jb20wggEiMA0GCSqGSIb3DQEBAQUAA4IBDwAwggEKAoIB
AQC14XEw3c7I5Z3nYMcLoZGa07cf+ED4GsHYnjjVk/of+ouv21CXXiBdedXf3N42
2Jq//uaA4ORYgNm2HOmwK5VLFh76pMCtnNH7rqHwahyJIHcefSodercF7/njC3sc
Qcta9jR3BEFc+zrvOFjp3ZbNBeteFJHjBGsn8/Lq94pe19ExRAPCj7GWhFYkTaqU
zaHvHpDGvVvGSNCY8G6C6dq7WWLFRaVIChuw+PcarrfgebiQkMth9fGbUKP+9rYv
WKhVufFvJZ9aADq0v3WAXgGMPxFE0uDKzAVPeksn+q9v0WOtBBDUC2taed1/Ipzp
yoGk/i8kyoHWWBPBmQZ+cnt1AgMBAAGjgeswgegwMwYDVR0fBCwwKjAooCagJIYi
aHR0cDovL3d3dy5kaWdpY2VydC5jb20vY2EtY3JsLnBlbTA4BggrBgEFBQcBAQQs
MCowKAYIKwYBBQUHMAGGHGh0dHA6Ly93d3cuZGlnaWNlcnQuY29tOjMzMzMwCQYD
VR0TBAIwADAsBglghkgBhvhCAQ0EHxYdT3BlblNTTCBHZW5lcmF0ZWQgQ2VydGlm
aWNhdGUwHQYDVR0OBBYEFA586v87DQCMvNXGoSZSEPufBp7+MB8GA1UdIwQYMBaA
FA7nGP8idXmF9gZ/ZD0BuvJ2L5RyMA0GCSqGSIb3DQEBCwUAA4IBAQBQdgnVWtx4
FbR9YQKhqMs0ImJwL1ldmigf59cqKtU37i0i+mdtE0UAZ8EA1KRNUJ6lISGdQUvn
AZdD4AHBg5LOSlF1mwPcOUWJV+ARTPuE7gLmh82/Ebr8qZLRbmSDiG7mvrvnPGEx
KQ/HjCWK4skBwqO/vd43WAJvcBoLZfodlVHTBsICyZCBQ1qnKCnCGSR6JvvKZgbM
X0+7iIxAnkaKc61nmTe1fvovI7ykNESa5PbEBlWjxoD3KBpqi4eoGTf+6jLwl7po
+0VY3Nyrd+eAYyKgiDKg5h4+SiiHsNLIXaG9VvqqnVmA27OfPH9f0x+A4Sr2RXap
Y6F3jnBFoguc
-----END CERTIFICATE-----
