Certificate:
    Data:
        Version: 3 (0x2)
        Serial Number: 1 (0x1)
    Signature Algorithm: sha256WithRSAEncryption
        Issuer: C=US, O=DigiCert, CN=DigiCert CA
        Validity
            Not Before: Dec 11 15:26:42 2017 GMT
            Not After : Dec 11 15:26:42 2018 GMT
        Subject: C=US, O=Facebook 91, CN=radius.fb.com
        Subject Public Key Info:
            Public Key Algorithm: rsaEncryption
                Public-Key: (2048 bit)
                Modulus:
                    00:cd:44:80:b6:2f:27:bb:d5:d8:14:33:51:8d:ec:
                    c3:fa:74:48:92:87:07:f1:4c:56:7e:03:25:14:59:
                    89:df:98:e3:32:c2:43:2b:80:e5:a4:71:b4:f7:6a:
                    7c:c9:67:ba:52:e0:1f:41:cf:1d:b0:5d:94:c9:34:
                    64:60:94:fa:3e:1f:02:5f:ee:c1:4a:c8:2c:72:80:
                    56:8a:15:b1:9a:65:f5:ce:be:43:a6:77:e6:d8:a4:
                    fa:03:93:10:cf:c4:7a:a5:35:47:3f:ac:26:08:e9:
                    3b:57:ba:c6:fc:11:27:0f:13:33:8b:79:a3:92:2b:
                    9e:39:4f:9a:49:73:05:84:d3:dc:2f:67:18:f7:99:
                    97:15:38:18:81:83:c1:20:ac:df:6b:31:00:db:8b:
                    e2:90:86:fc:69:2d:bf:88:f5:77:4d:4e:61:3f:ea:
                    90:02:96:16:b7:da:88:69:ea:8b:91:19:e8:60:eb:
                    48:d8:df:06:74:14:f4:12:39:29:5c:ca:42:02:44:
                    d8:ab:25:cd:05:69:e8:2c:c0:4c:df:e7:8e:00:64:
                    9e:8c:ff:52:6c:fd:f0:bb:94:05:c0:df:8f:22:19:
                    57:c8:6f:cb:85:1f:fb:99:cd:0c:2f:8b:0c:10:29:
                    2e:84:2a:91:46:e8:d9:58:c5:7e:95:8e:18:7b:ad:
                    87:0b
                Exponent: 65537 (0x10001)
        X509v3 extensions:
            X509v3 CRL Distribution Points: 

                Full Name:
                  URI:http://www.digicert.com/ca-crl.pem

            Authority Information Access: 
                OCSP - URI:http://www.digicert.com:3333

            X509v3 Basic Constraints: 
                CA:FALSE
            Netscape Comment: 
                OpenSSL Generated Certificate
            X509v3 Subject Key Identifier: 
                5E:D9:5A:E2:42:59:10:99:E2:23:33:1E:AB:AF:30:FB:D6:80:DE:32
            X509v3 Authority Key Identifier: 
                keyid:0E:E7:18:FF:22:75:79:85:F6:06:7F:64:3D:01:BA:F2:76:2F:94:72

    Signature Algorithm: sha256WithRSAEncryption
         75:f8:37:f0:98:eb:02:2f:f7:be:85:47:a0:64:f7:ed:4f:bf:
         67:c8:3b:07:cd:63:0c:f7:0b:12:e7:c9:76:2e:75:81:fb:39:
         65:3c:8c:3e:e6:ce:68:b3:ff:6c:12:06:ca:a1:ba:4e:f1:90:
         e8:cd:6f:3a:f9:ee:42:e1:2f:06:e4:2a:e3:90:33:ac:d5:35:
         ee:92:cb:c1:8a:b9:aa:e8:9b:96:d1:be:46:cc:02:bf:af:d9:
         94:31:93:cb:2e:71:c1:6f:67:6e:cd:c8:51:9f:fd:3f:19:94:
         10:a1:e9:be:99:0d:c4:49:61:23:4c:16:89:5a:5c:95:9d:c7:
         b3:90:a9:f0:34:93:09:3f:94:d6:ef:71:a9:67:12:e4:0f:ec:
         52:39:97:6d:48:4e:02:54:ef:83:dd:bb:03:2e:c0:01:c7:b3:
         43:df:7d:f9:60:fd:1e:45:a5:c7:13:cd:65:fd:06:24:4e:7d:
         ac:9e:84:97:13:e4:82:60:d1:05:33:fa:f5:d2:b4:25:45:79:
         ae:74:dc:71:a8:bb:65:11:7a:f4:fe:31:24:63:82:66:63:33:
         59:83:ef:fe:6d:a4:11:14:d8:aa:ce:81:0e:df:20:fc:f7:55:
         9b:1d:54:71:f1:f1:ae:bc:b3:e4:72:81:23:3d:ef:42:b2:72:
         3a:e7:e7:8b
-----BEGIN CERTIFICATE-----
MIID2DCCAsCgAwIBAgIBATANBgkqhkiG9w0BAQsFADA2MQswCQYDVQQGEwJVUzER
MA8GA1UECgwIRGlnaUNlcnQxFDASBgNVBAMMC0RpZ2lDZXJ0IENBMB4XDTE3MTIx
MTE1MjY0MloXDTE4MTIxMTE1MjY0MlowOzELMAkGA1UEBhMCVVMxFDASBgNVBAoM
C0ZhY2Vib29rIDkxMRYwFAYDVQQDDA1yYWRpdXMuZmIuY29tMIIBIjANBgkqhkiG
9w0BAQEFAAOCAQ8AMIIBCgKCAQEAzUSAti8nu9XYFDNRjezD+nRIkocH8UxWfgMl
FFmJ35jjMsJDK4DlpHG092p8yWe6UuAfQc8dsF2UyTRkYJT6Ph8CX+7BSsgscoBW
ihWxmmX1zr5Dpnfm2KT6A5MQz8R6pTVHP6wmCOk7V7rG/BEnDxMzi3mjkiueOU+a
SXMFhNPcL2cY95mXFTgYgYPBIKzfazEA24vikIb8aS2/iPV3TU5hP+qQApYWt9qI
aeqLkRnoYOtI2N8GdBT0EjkpXMpCAkTYqyXNBWnoLMBM3+eOAGSejP9SbP3wu5QF
wN+PIhlXyG/LhR/7mc0ML4sMECkuhCqRRujZWMV+lY4Ye62HCwIDAQABo4HrMIHo
MDMGA1UdHwQsMCowKKAmoCSGImh0dHA6Ly93d3cuZGlnaWNlcnQuY29tL2NhLWNy
bC5wZW0wOAYIKwYBBQUHAQEELDAqMCgGCCsGAQUFBzABhhxodHRwOi8vd3d3LmRp
Z2ljZXJ0LmNvbTozMzMzMAkGA1UdEwQCMAAwLAYJYIZIAYb4QgENBB8WHU9wZW5T
U0wgR2VuZXJhdGVkIENlcnRpZmljYXRlMB0GA1UdDgQWBBRe2VriQlkQmeIjMx6r
rzD71oDeMjAfBgNVHSMEGDAWgBQO5xj/InV5hfYGf2Q9Abrydi+UcjANBgkqhkiG
9w0BAQsFAAOCAQEAdfg38JjrAi/3voVHoGT37U+/Z8g7B81jDPcLEufJdi51gfs5
ZTyMPubOaLP/bBIGyqG6TvGQ6M1vOvnuQuEvBuQq45AzrNU17pLLwYq5quibltG+
RswCv6/ZlDGTyy5xwW9nbs3IUZ/9PxmUEKHpvpkNxElhI0wWiVpclZ3Hs5Cp8DST
CT+U1u9xqWcS5A/sUjmXbUhOAlTvg927Ay7AAcezQ999+WD9HkWlxxPNZf0GJE59
rJ6ElxPkgmDRBTP69dK0JUV5rnTccai7ZRF69P4xJGOCZmMzWYPv/m2kERTYqs6B
Dt8g/PdVmx1UcfHxrryz5HKBIz3vQrJyOufniw==
-----END CERTIFICATE-----
