Certificate:
    Data:
        Version: 3 (0x2)
        Serial Number: 9 (0x9)
    Signature Algorithm: sha256WithRSAEncryption
        Issuer: C=US, O=DigiCert, CN=DigiCert CA
        Validity
            Not Before: Dec 11 15:45:13 2017 GMT
            Not After : Dec 11 15:45:13 2018 GMT
        Subject: C=US, O=DigiCert, CN=www.digicert.com
        Subject Public Key Info:
            Public Key Algorithm: rsaEncryption
                Public-Key: (2048 bit)
                Modulus:
                    00:e7:68:90:65:a1:b2:a7:70:29:4c:3c:84:f3:d8:
                    9b:51:cc:5f:cc:ec:7f:43:ad:bd:e7:cc:dc:8a:b6:
                    f5:a3:a3:5b:42:f0:a5:c1:32:6c:91:6d:43:22:df:
                    07:db:96:70:3f:52:7a:97:8e:27:5d:bb:a3:4c:1e:
                    f2:76:ca:4b:b0:d4:d1:99:c1:9a:c9:c4:26:99:a0:
                    70:d4:71:9e:63:b8:11:32:73:6f:62:19:4d:4a:ec:
                    1c:f9:8f:86:c3:f9:b8:c7:ee:a2:f7:c8:eb:ef:f3:
                    f1:37:e4:f6:0a:66:e0:c7:f8:63:cd:4c:7e:da:45:
                    3e:96:51:b5:a7:48:39:12:ff:b4:50:54:0a:c9:1c:
                    99:ca:41:23:70:69:23:41:2b:8b:14:7a:85:f3:70:
                    03:86:01:7d:a1:50:3c:50:36:84:1a:c6:12:f3:86:
                    0f:44:2f:41:d9:28:f4:ef:b9:a5:6a:6a:c7:bd:db:
                    dc:22:51:0f:2a:35:98:21:c8:61:cf:39:54:c9:47:
                    45:cc:2a:9b:34:0e:07:84:49:da:4b:f1:85:89:c5:
                    7c:81:56:3d:1f:ce:f0:ff:29:46:5f:97:54:47:4f:
                    58:2c:55:5c:ae:45:c7:b6:dd:5e:96:e0:ad:c4:ba:
                    a8:52:f2:a6:d1:d3:65:cc:df:dd:88:0c:a9:2d:19:
                    b8:73
                Exponent: 65537 (0x10001)
        X509v3 extensions:
            X509v3 CRL Distribution Points: 

                Full Name:
                  URI:http://www.digicert.com/ca-crl.pem

            Authority Information Access: 
                OCSP - URI:http://www.digicert.com:3333

            X509v3 Basic Constraints: 
                CA:FALSE
            Netscape Comment: 
                OpenSSL Generated Certificate
            X509v3 Subject Key Identifier: 
                49:69:D5:D0:CC:33:10:06:5D:64:44:3A:C7:F6:4D:6F:0E:47:FC:08
            X509v3 Authority Key Identifier: 
                keyid:0E:E7:18:FF:22:75:79:85:F6:06:7F:64:3D:01:BA:F2:76:2F:94:72

    Signature Algorithm: sha256WithRSAEncryption
         6f:3c:02:77:cb:ce:91:19:93:50:23:59:8c:06:13:ab:cf:95:
         1f:c8:f4:06:1f:04:ca:5f:46:f7:62:9e:42:aa:d8:f6:fb:42:
         c5:1a:0c:b0:19:52:94:a1:06:ff:89:57:14:9a:42:02:42:f5:
         c2:83:dd:74:5b:cd:51:9f:b3:2d:11:8b:b4:63:a3:fd:89:56:
         fc:8c:48:90:55:86:20:a4:64:2f:dd:57:8f:ec:94:50:81:f2:
         98:6e:52:2b:f4:77:8c:0b:21:38:1f:42:43:aa:97:f3:9d:11:
         18:0c:42:ff:a4:f0:cd:0c:a0:36:cc:0e:48:5f:49:46:19:f1:
         86:de:d3:17:7b:0f:8f:da:8f:83:3a:e7:c9:f1:81:08:10:cf:
         d4:5c:01:01:bd:0a:3b:01:3a:5c:1f:57:2d:b0:2e:9a:bb:cd:
         77:d4:a7:36:09:0b:2f:8a:31:4f:9c:1e:c6:18:00:e9:e8:9e:
         f7:f9:c9:3f:0a:e8:48:97:0e:7c:e6:1d:bf:b8:1f:0e:f9:d4:
         0d:93:66:51:d1:f6:8b:d1:6a:bc:63:22:56:75:02:3b:94:67:
         8c:32:ce:8f:2d:dd:2d:84:97:96:3b:7c:fc:f3:e0:7a:5d:e4:
         45:3f:b5:00:53:bc:84:d7:10:4a:18:0d:24:21:a7:29:47:59:
         18:e0:91:80
-----BEGIN CERTIFICATE-----
MIID2DCCAsCgAwIBAgIBCTANBgkqhkiG9w0BAQsFADA2MQswCQYDVQQGEwJVUzER
MA8GA1UECgwIRGlnaUNlcnQxFDASBgNVBAMMC0RpZ2lDZXJ0IENBMB4XDTE3MTIx
MTE1NDUxM1oXDTE4MTIxMTE1NDUxM1owOzELMAkGA1UEBhMCVVMxETAPBgNVBAoM
CERpZ2lDZXJ0MRkwFwYDVQQDDBB3d3cuZGlnaWNlcnQuY29tMIIBIjANBgkqhkiG
9w0BAQEFAAOCAQ8AMIIBCgKCAQEA52iQZaGyp3ApTDyE89ibUcxfzOx/Q62958zc
irb1o6NbQvClwTJskW1DIt8H25ZwP1J6l44nXbujTB7ydspLsNTRmcGaycQmmaBw
1HGeY7gRMnNvYhlNSuwc+Y+Gw/m4x+6i98jr7/PxN+T2Cmbgx/hjzUx+2kU+llG1
p0g5Ev+0UFQKyRyZykEjcGkjQSuLFHqF83ADhgF9oVA8UDaEGsYS84YPRC9B2Sj0
77mlamrHvdvcIlEPKjWYIchhzzlUyUdFzCqbNA4HhEnaS/GFicV8gVY9H87w/ylG
X5dUR09YLFVcrkXHtt1eluCtxLqoUvKm0dNlzN/diAypLRm4cwIDAQABo4HrMIHo
MDMGA1UdHwQsMCowKKAmoCSGImh0dHA6Ly93d3cuZGlnaWNlcnQuY29tL2NhLWNy
bC5wZW0wOAYIKwYBBQUHAQEELDAqMCgGCCsGAQUFBzABhhxodHRwOi8vd3d3LmRp
Z2ljZXJ0LmNvbTozMzMzMAkGA1UdEwQCMAAwLAYJYIZIAYb4QgENBB8WHU9wZW5T
U0wgR2VuZXJhdGVkIENlcnRpZmljYXRlMB0GA1UdDgQWBBRJadXQzDMQBl1kRDrH
9k1vDkf8CDAfBgNVHSMEGDAWgBQO5xj/InV5hfYGf2Q9Abrydi+UcjANBgkqhkiG
9w0BAQsFAAOCAQEAbzwCd8vOkRmTUCNZjAYTq8+VH8j0Bh8Eyl9G92KeQqrY9vtC
xRoMsBlSlKEG/4lXFJpCAkL1woPddFvNUZ+zLRGLtGOj/YlW/IxIkFWGIKRkL91X
j+yUUIHymG5SK/R3jAshOB9CQ6qX850RGAxC/6TwzQygNswOSF9JRhnxht7TF3sP
j9qPgzrnyfGBCBDP1FwBAb0KOwE6XB9XLbAumrvNd9SnNgkLL4oxT5wexhgA6eie
9/nJPwroSJcOfOYdv7gfDvnUDZNmUdH2i9FqvGMiVnUCO5RnjDLOjy3dLYSXljt8
/PPgel3kRT+1AFO8hNcQShgNJCGnKUdZGOCRgA==
-----END CERTIFICATE-----
